target datalayout = "e-m:e-p270:32:32-p271:32:32-p272:64:64-i64:64-i128:128-f80:128-n8:16:32:64-S128"
target triple = "x86_64-pc-linux-gnu"

%"class.vcg::Color4" = type { %"class.vcg::Point4" }
%"class.vcg::Point4" = type { [4 x i8] }
%class.MLRenderingAction = type { %class.QAction }
%class.QAction = type { %class.QObject }
%class.QObject = type { ptr, %class.QScopedPointer }
%class.QScopedPointer = type { ptr }
%class.MLRenderingBBoxPerMeshColorAction = type <{ %class.MLRenderingAction, %"class.vcg::Color4", [4 x i8] }>

; Function Attrs: mustprogress nounwind uwtable
define linkonce_odr void @_ZN3vcg6Point4IhEC2Ehhhh(ptr noundef nonnull align 1 dereferenceable(4) %0, i8 noundef zeroext %1, i8 noundef zeroext %2, i8 noundef zeroext %3, i8 noundef zeroext %4) unnamed_addr #4 comdat align 2 {
  %6 = alloca ptr, align 8
  %7 = alloca i8, align 1
  %8 = alloca i8, align 1
  %9 = alloca i8, align 1
  %10 = alloca i8, align 1
  store ptr %0, ptr %6, align 8
  store i8 %1, ptr %7, align 1
  store i8 %2, ptr %8, align 1
  store i8 %3, ptr %9, align 1
  store i8 %4, ptr %10, align 1
  %11 = load ptr, ptr %6, align 8
  %12 = load i8, ptr %7, align 1
  %13 = getelementptr inbounds %"class.vcg::Point4", ptr %11, i32 0, i32 0
  %14 = getelementptr inbounds [4 x i8], ptr %13, i64 0, i64 0
  store i8 %12, ptr %14, align 1
  %15 = load i8, ptr %8, align 1
  %16 = getelementptr inbounds %"class.vcg::Point4", ptr %11, i32 0, i32 0
  %17 = getelementptr inbounds [4 x i8], ptr %16, i64 0, i64 1
  store i8 %15, ptr %17, align 1
  %18 = load i8, ptr %9, align 1
  %19 = getelementptr inbounds %"class.vcg::Point4", ptr %11, i32 0, i32 0
  %20 = getelementptr inbounds [4 x i8], ptr %19, i64 0, i64 2
  store i8 %18, ptr %20, align 1
  %21 = load i8, ptr %10, align 1
  %22 = getelementptr inbounds %"class.vcg::Point4", ptr %11, i32 0, i32 0
  %23 = getelementptr inbounds [4 x i8], ptr %22, i64 0, i64 3
  store i8 %21, ptr %23, align 1
  ret void
}

; Function Attrs: mustprogress uwtable
define linkonce_odr void @_ZN3vcg6Color4IhEC2Ehhhh(ptr noundef nonnull align 1 dereferenceable(4) %0, i8 noundef zeroext %1, i8 noundef zeroext %2, i8 noundef zeroext %3, i8 noundef zeroext %4) unnamed_addr #5 comdat align 2 {
  %6 = alloca ptr, align 8
  %7 = alloca i8, align 1
  %8 = alloca i8, align 1
  %9 = alloca i8, align 1
  %10 = alloca i8, align 1
  store ptr %0, ptr %6, align 8
  store i8 %1, ptr %7, align 1
  store i8 %2, ptr %8, align 1
  store i8 %3, ptr %9, align 1
  store i8 %4, ptr %10, align 1
  %11 = load ptr, ptr %6, align 8
  %12 = load i8, ptr %7, align 1
  %13 = load i8, ptr %8, align 1
  %14 = load i8, ptr %9, align 1
  %15 = load i8, ptr %10, align 1
  call void @_ZN3vcg6Point4IhEC2Ehhhh(ptr noundef nonnull align 1 dereferenceable(4) %11, i8 noundef zeroext %12, i8 noundef zeroext %13, i8 noundef zeroext %14, i8 noundef zeroext %15)
  ret void
}

; Function Attrs: mustprogress uwtable
define linkonce_odr i32 @_ZN3vcg14ColorConverter9ToColor4bERK6QColor(ptr noundef nonnull align 4 dereferenceable(14) %0) #5 comdat align 2 {
  %2 = alloca %"class.vcg::Color4", align 1
  %3 = alloca ptr, align 8
  store ptr %0, ptr %3, align 8
  %4 = load ptr, ptr %3, align 8
  %5 = call noundef i32 @_ZNK6QColor3redEv(ptr noundef nonnull align 4 dereferenceable(14) %4) #3
  %6 = trunc i32 %5 to i8
  %7 = load ptr, ptr %3, align 8
  %8 = call noundef i32 @_ZNK6QColor5greenEv(ptr noundef nonnull align 4 dereferenceable(14) %7) #3
  %9 = trunc i32 %8 to i8
  %10 = load ptr, ptr %3, align 8
  %11 = call noundef i32 @_ZNK6QColor4blueEv(ptr noundef nonnull align 4 dereferenceable(14) %10) #3
  %12 = trunc i32 %11 to i8
  %13 = load ptr, ptr %3, align 8
  %14 = call noundef i32 @_ZNK6QColor5alphaEv(ptr noundef nonnull align 4 dereferenceable(14) %13) #3
  %15 = trunc i32 %14 to i8
  call void @_ZN3vcg6Color4IhEC2Ehhhh(ptr noundef nonnull align 1 dereferenceable(4) %2, i8 noundef zeroext %6, i8 noundef zeroext %9, i8 noundef zeroext %12, i8 noundef zeroext %15)
  %16 = getelementptr inbounds %"class.vcg::Color4", ptr %2, i32 0, i32 0
  %17 = getelementptr inbounds %"class.vcg::Point4", ptr %16, i32 0, i32 0
  %18 = load i32, ptr %17, align 1
  ret i32 %18
}

; Function Attrs: mustprogress uwtable
define void @_ZN33MLRenderingBBoxPerMeshColorAction8setColorERK6QColor(ptr noundef nonnull align 8 dereferenceable(20) %0, ptr noundef nonnull align 4 dereferenceable(14) %1) #5 align 2 {
  %3 = alloca ptr, align 8
  %4 = alloca ptr, align 8
  %5 = alloca %"class.vcg::Color4", align 1
  store ptr %0, ptr %3, align 8
  store ptr %1, ptr %4, align 8
  %6 = load ptr, ptr %3, align 8
  %7 = load ptr, ptr %4, align 8
  %8 = call i32 @_ZN3vcg14ColorConverter9ToColor4bERK6QColor(ptr noundef nonnull align 4 dereferenceable(14) %7)
  %9 = getelementptr inbounds %"class.vcg::Color4", ptr %5, i32 0, i32 0
  %10 = getelementptr inbounds %"class.vcg::Point4", ptr %9, i32 0, i32 0
  store i32 %8, ptr %10, align 1
  %11 = getelementptr inbounds %class.MLRenderingBBoxPerMeshColorAction, ptr %6, i32 0, i32 1
  call void @llvm.memcpy.p0.p0.i64(ptr align 8 %11, ptr align 1 %5, i64 4, i1 false)
  ret void
}