; Function Attrs: mustprogress nounwind uwtable
define void @_ZN33MLRenderingBBoxPerMeshColorAction8setColorERK6QColor(ptr nocapture noundef nonnull writeonly align 8 dereferenceable(20) %0, ptr noundef nonnull align 4 dereferenceable(14) %1) local_unnamed_addr #4 align 2 {
  %3 = tail call noundef i32 @_ZNK6QColor3redEv(ptr noundef nonnull align 4 dereferenceable(14) %1) #21
  %4 = tail call noundef i32 @_ZNK6QColor5greenEv(ptr noundef nonnull align 4 dereferenceable(14) %1) #21
  %5 = tail call noundef i32 @_ZNK6QColor4blueEv(ptr noundef nonnull align 4 dereferenceable(14) %1) #21
  %6 = tail call noundef i32 @_ZNK6QColor5alphaEv(ptr noundef nonnull align 4 dereferenceable(14) %1) #21
  %.sroa.4.0.insert.ext.i = shl i32 %6, 24
  %.sroa.3.0.insert.ext.i = shl i32 %5, 16
  %.sroa.3.0.insert.shift.i = and i32 %.sroa.3.0.insert.ext.i, 16711680
  %.sroa.3.0.insert.insert.i = or disjoint i32 %.sroa.4.0.insert.ext.i, %.sroa.3.0.insert.shift.i
  %.sroa.2.0.insert.ext.i = shl i32 %4, 8
  %.sroa.2.0.insert.shift.i = and i32 %.sroa.2.0.insert.ext.i, 65280
  %.sroa.2.0.insert.insert.i = or disjoint i32 %.sroa.3.0.insert.insert.i, %.sroa.2.0.insert.shift.i
  %.sroa.0.0.insert.ext.i = and i32 %3, 255
  %.sroa.0.0.insert.insert.i = or disjoint i32 %.sroa.2.0.insert.insert.i, %.sroa.0.0.insert.ext.i
  %7 = getelementptr inbounds i8, ptr %0, i64 16
  store i32 %.sroa.0.0.insert.insert.i, ptr %7, align 8
  ret void
}